; Function Attrs: mustprogress uwtable
define void @_ZN6icu_7713UCollationPCE4initEP18UCollationElements(ptr noundef nonnull writeonly align 8 captures(none) dereferenceable(292) initializes((272, 286), (288, 292)) %0, ptr noundef %1) local_unnamed_addr #6 align 2 {
  %3 = alloca i32, align 4
  %4 = getelementptr inbounds nuw i8, ptr %0, i64 272
  store ptr %1, ptr %4, align 8, !tbaa !28
  %5 = getelementptr inbounds nuw i8, ptr %1, i64 16
  %6 = load ptr, ptr %5, align 8, !tbaa !32
  call void @llvm.lifetime.start.p0(i64 4, ptr nonnull %3) #14
  store i32 0, ptr %3, align 4, !tbaa !12
  %7 = load ptr, ptr %6, align 8, !tbaa !40
  %8 = getelementptr inbounds nuw i8, ptr %7, i64 192
  %9 = load ptr, ptr %8, align 8
  %10 = call noundef i32 %9(ptr noundef nonnull align 8 dereferenceable(8) %6, i32 noundef 5, ptr noundef nonnull align 4 dereferenceable(4) %3)
  %11 = getelementptr inbounds nuw i8, ptr %0, i64 280
  store i32 %10, ptr %11, align 8, !tbaa !42
  %12 = load ptr, ptr %6, align 8, !tbaa !40
  %13 = getelementptr inbounds nuw i8, ptr %12, i64 192
  %14 = load ptr, ptr %13, align 8
  %15 = call noundef i32 %14(ptr noundef nonnull align 8 dereferenceable(8) %6, i32 noundef 1, ptr noundef nonnull align 4 dereferenceable(4) %3)
  %16 = icmp eq i32 %15, 20
  %17 = zext i1 %16 to i8
  %18 = getelementptr inbounds nuw i8, ptr %0, i64 284
  store i8 %17, ptr %18, align 4, !tbaa !43
  %19 = getelementptr inbounds nuw i8, ptr %0, i64 285
  store i8 0, ptr %19, align 1, !tbaa !44
  %20 = load ptr, ptr %6, align 8, !tbaa !40
  %21 = getelementptr inbounds nuw i8, ptr %20, i64 240
  %22 = load ptr, ptr %21, align 8
  %23 = call noundef i32 %22(ptr noundef nonnull align 8 dereferenceable(8) %6, ptr noundef nonnull align 4 dereferenceable(4) %3)
  %24 = getelementptr inbounds nuw i8, ptr %0, i64 288
  store i32 %23, ptr %24, align 8, !tbaa !45
  call void @llvm.lifetime.end.p0(i64 4, ptr nonnull %3) #14
  ret void
}